; Function Attrs: mustprogress nofree nounwind willreturn memory(argmem: read) uwtable
define internal fastcc noundef i32 @"_ZN5ZXing15TransformReduceINSt7__cxx1112basic_stringIcSt11char_traitsIcESaIcEEEiZNKS_4OneD12Code39Reader13decodePatternEiRNS_11PatternViewERSt10unique_ptrINS7_9RowReader13DecodingStateESt14default_deleteISD_EEE3$_1EET0_RKT_SJ_T1_"(ptr readonly captures(address) %.0.val, i64 %.8.val) unnamed_addr #5 {
  %1 = getelementptr inbounds nuw i8, ptr %.0.val, i64 %.8.val
  %2 = icmp samesign eq i64 %.8.val, 0
  br i1 %2, label %._crit_edge, label %.lr.ph

._crit_edge:                                      ; preds = %.lr.ph, %0
  %.0.lcssa = phi i32 [ 0, %0 ], [ %9, %.lr.ph ]
  ret i32 %.0.lcssa

.lr.ph:                                           ; preds = %0, %.lr.ph
  %.05 = phi i32 [ %9, %.lr.ph ], [ 0, %0 ]
  %.sroa.01.04 = phi ptr [ %10, %.lr.ph ], [ %.0.val, %0 ]
  %3 = load i8, ptr %.sroa.01.04, align 1, !tbaa !12
  %4 = sext i8 %3 to i32
  %memchr.i = tail call ptr @memchr(ptr noundef nonnull dereferenceable(1) @_ZN5ZXing4OneDL8ALPHABETE, i32 %4, i64 45)
  %.not.i.i = icmp eq ptr %memchr.i, null
  %5 = ptrtoint ptr %memchr.i to i64
  %6 = trunc i64 %5 to i32
  %7 = sub i32 %6, ptrtoint (ptr @_ZN5ZXing4OneDL8ALPHABETE to i32)
  %8 = select i1 %.not.i.i, i32 -1, i32 %7
  %9 = add nsw i32 %8, %.05
  %10 = getelementptr inbounds nuw i8, ptr %.sroa.01.04, i64 1
  %11 = icmp eq ptr %10, %1
  br i1 %11, label %._crit_edge, label %.lr.ph
}